target datalayout = "e-m:e-p270:32:32-p271:32:32-p272:64:64-i64:64-i128:128-f80:128-n8:16:32:64-S128"
target triple = "x86_64-pc-linux-gnu"

%struct.NFA = type { i32, i32, i8, i8, i8, i8, %union.anon, i32, i32, i32, i32, i32, i32, i32, [20 x i8] }
%union.anon = type { i16 }

; Function Attrs: nounwind uwtable
define hidden signext i8 @nfaInitCompressedState(ptr noundef %0, i64 noundef %1, ptr noundef %2, i8 noundef zeroext %3) #0 {
  %5 = alloca i8, align 1
  %6 = alloca ptr, align 8
  %7 = alloca i64, align 8
  %8 = alloca ptr, align 8
  %9 = alloca i8, align 1
  %10 = alloca i32, align 4
  %11 = alloca i32, align 4
  %12 = alloca i32, align 4
  %13 = alloca i32, align 4
  %14 = alloca i32, align 4
  store ptr %0, ptr %6, align 8
  store i64 %1, ptr %7, align 8
  store ptr %2, ptr %8, align 8
  store i8 %3, ptr %9, align 1
  %15 = load ptr, ptr %6, align 8
  %16 = getelementptr inbounds nuw %struct.NFA, ptr %15, i32 0, i32 2
  %17 = load i8, ptr %16, align 8
  %18 = zext i8 %17 to i32
  switch i32 %18, label %154 [
    i32 0, label %19
    i32 1, label %25
    i32 2, label %31
    i32 3, label %37
    i32 4, label %43
    i32 5, label %49
    i32 6, label %55
    i32 7, label %61
    i32 8, label %67
    i32 9, label %73
    i32 10, label %79
    i32 11, label %85
    i32 12, label %91
    i32 13, label %97
    i32 14, label %103
    i32 15, label %109
    i32 16, label %115
    i32 17, label %121
    i32 18, label %127
    i32 19, label %130
    i32 20, label %136
    i32 21, label %142
    i32 22, label %145
    i32 23, label %148
    i32 24, label %151
  ]

19:                                               ; preds = %4
  %20 = load ptr, ptr %6, align 8
  %21 = load i64, ptr %7, align 8
  %22 = load ptr, ptr %8, align 8
  %23 = load i8, ptr %9, align 1
  %24 = call signext i8 @nfaExecLimEx32_initCompressedState(ptr noundef %20, i64 noundef %21, ptr noundef %22, i8 noundef zeroext %23)
  store i8 %24, ptr %5, align 1
  br label %156

25:                                               ; preds = %4
  %26 = load ptr, ptr %6, align 8
  %27 = load i64, ptr %7, align 8
  %28 = load ptr, ptr %8, align 8
  %29 = load i8, ptr %9, align 1
  %30 = call signext i8 @nfaExecLimEx64_initCompressedState(ptr noundef %26, i64 noundef %27, ptr noundef %28, i8 noundef zeroext %29)
  store i8 %30, ptr %5, align 1
  br label %156

31:                                               ; preds = %4
  %32 = load ptr, ptr %6, align 8
  %33 = load i64, ptr %7, align 8
  %34 = load ptr, ptr %8, align 8
  %35 = load i8, ptr %9, align 1
  %36 = call signext i8 @nfaExecLimEx128_initCompressedState(ptr noundef %32, i64 noundef %33, ptr noundef %34, i8 noundef zeroext %35)
  store i8 %36, ptr %5, align 1
  br label %156

37:                                               ; preds = %4
  %38 = load ptr, ptr %6, align 8
  %39 = load i64, ptr %7, align 8
  %40 = load ptr, ptr %8, align 8
  %41 = load i8, ptr %9, align 1
  %42 = call signext i8 @nfaExecLimEx256_initCompressedState(ptr noundef %38, i64 noundef %39, ptr noundef %40, i8 noundef zeroext %41)
  store i8 %42, ptr %5, align 1
  br label %156

43:                                               ; preds = %4
  %44 = load ptr, ptr %6, align 8
  %45 = load i64, ptr %7, align 8
  %46 = load ptr, ptr %8, align 8
  %47 = load i8, ptr %9, align 1
  %48 = call signext i8 @nfaExecLimEx384_initCompressedState(ptr noundef %44, i64 noundef %45, ptr noundef %46, i8 noundef zeroext %47)
  store i8 %48, ptr %5, align 1
  br label %156

49:                                               ; preds = %4
  %50 = load ptr, ptr %6, align 8
  %51 = load i64, ptr %7, align 8
  %52 = load ptr, ptr %8, align 8
  %53 = load i8, ptr %9, align 1
  %54 = call signext i8 @nfaExecLimEx512_initCompressedState(ptr noundef %50, i64 noundef %51, ptr noundef %52, i8 noundef zeroext %53)
  store i8 %54, ptr %5, align 1
  br label %156

55:                                               ; preds = %4
  %56 = load ptr, ptr %6, align 8
  %57 = load i64, ptr %7, align 8
  %58 = load ptr, ptr %8, align 8
  %59 = load i8, ptr %9, align 1
  %60 = call signext i8 @nfaExecMcClellan8_initCompressedState(ptr noundef %56, i64 noundef %57, ptr noundef %58, i8 noundef zeroext %59)
  store i8 %60, ptr %5, align 1
  br label %156

61:                                               ; preds = %4
  %62 = load ptr, ptr %6, align 8
  %63 = load i64, ptr %7, align 8
  %64 = load ptr, ptr %8, align 8
  %65 = load i8, ptr %9, align 1
  %66 = call signext i8 @nfaExecMcClellan16_initCompressedState(ptr noundef %62, i64 noundef %63, ptr noundef %64, i8 noundef zeroext %65)
  store i8 %66, ptr %5, align 1
  br label %156

67:                                               ; preds = %4
  %68 = load ptr, ptr %6, align 8
  %69 = load i64, ptr %7, align 8
  %70 = load ptr, ptr %8, align 8
  %71 = load i8, ptr %9, align 1
  %72 = call signext i8 @nfaExecGough8_initCompressedState(ptr noundef %68, i64 noundef %69, ptr noundef %70, i8 noundef zeroext %71)
  store i8 %72, ptr %5, align 1
  br label %156

73:                                               ; preds = %4
  %74 = load ptr, ptr %6, align 8
  %75 = load i64, ptr %7, align 8
  %76 = load ptr, ptr %8, align 8
  %77 = load i8, ptr %9, align 1
  %78 = call signext i8 @nfaExecGough16_initCompressedState(ptr noundef %74, i64 noundef %75, ptr noundef %76, i8 noundef zeroext %77)
  store i8 %78, ptr %5, align 1
  br label %156

79:                                               ; preds = %4
  %80 = load ptr, ptr %6, align 8
  %81 = load i64, ptr %7, align 8
  %82 = load ptr, ptr %8, align 8
  %83 = load i8, ptr %9, align 1
  %84 = call signext i8 @nfaExecMpv_initCompressedState(ptr noundef %80, i64 noundef %81, ptr noundef %82, i8 noundef zeroext %83)
  store i8 %84, ptr %5, align 1
  br label %156

85:                                               ; preds = %4
  %86 = load ptr, ptr %6, align 8
  %87 = load i64, ptr %7, align 8
  %88 = load ptr, ptr %8, align 8
  %89 = load i8, ptr %9, align 1
  %90 = call signext i8 @nfaExecLbrDot_initCompressedState(ptr noundef %86, i64 noundef %87, ptr noundef %88, i8 noundef zeroext %89)
  store i8 %90, ptr %5, align 1
  br label %156

91:                                               ; preds = %4
  %92 = load ptr, ptr %6, align 8
  %93 = load i64, ptr %7, align 8
  %94 = load ptr, ptr %8, align 8
  %95 = load i8, ptr %9, align 1
  %96 = call signext i8 @nfaExecLbrVerm_initCompressedState(ptr noundef %92, i64 noundef %93, ptr noundef %94, i8 noundef zeroext %95)
  store i8 %96, ptr %5, align 1
  br label %156

97:                                               ; preds = %4
  %98 = load ptr, ptr %6, align 8
  %99 = load i64, ptr %7, align 8
  %100 = load ptr, ptr %8, align 8
  %101 = load i8, ptr %9, align 1
  %102 = call signext i8 @nfaExecLbrNVerm_initCompressedState(ptr noundef %98, i64 noundef %99, ptr noundef %100, i8 noundef zeroext %101)
  store i8 %102, ptr %5, align 1
  br label %156

103:                                              ; preds = %4
  %104 = load ptr, ptr %6, align 8
  %105 = load i64, ptr %7, align 8
  %106 = load ptr, ptr %8, align 8
  %107 = load i8, ptr %9, align 1
  %108 = call signext i8 @nfaExecLbrShuf_initCompressedState(ptr noundef %104, i64 noundef %105, ptr noundef %106, i8 noundef zeroext %107)
  store i8 %108, ptr %5, align 1
  br label %156

109:                                              ; preds = %4
  %110 = load ptr, ptr %6, align 8
  %111 = load i64, ptr %7, align 8
  %112 = load ptr, ptr %8, align 8
  %113 = load i8, ptr %9, align 1
  %114 = call signext i8 @nfaExecLbrTruf_initCompressedState(ptr noundef %110, i64 noundef %111, ptr noundef %112, i8 noundef zeroext %113)
  store i8 %114, ptr %5, align 1
  br label %156

115:                                              ; preds = %4
  %116 = load ptr, ptr %6, align 8
  %117 = load i64, ptr %7, align 8
  %118 = load ptr, ptr %8, align 8
  %119 = load i8, ptr %9, align 1
  %120 = call signext i8 @nfaExecCastle_initCompressedState(ptr noundef %116, i64 noundef %117, ptr noundef %118, i8 noundef zeroext %119)
  store i8 %120, ptr %5, align 1
  br label %156

121:                                              ; preds = %4
  %122 = load ptr, ptr %6, align 8
  %123 = load i64, ptr %7, align 8
  %124 = load ptr, ptr %8, align 8
  %125 = load i8, ptr %9, align 1
  %126 = call signext i8 @nfaExecSheng_initCompressedState(ptr noundef %122, i64 noundef %123, ptr noundef %124, i8 noundef zeroext %125)
  store i8 %126, ptr %5, align 1
  br label %156

127:                                              ; preds = %4
  store i32 0, ptr %10, align 4
  %128 = load i32, ptr %10, align 4
  %129 = trunc i32 %128 to i8
  store i8 %129, ptr %5, align 1
  br label %156

130:                                              ; preds = %4
  %131 = load ptr, ptr %6, align 8
  %132 = load i64, ptr %7, align 8
  %133 = load ptr, ptr %8, align 8
  %134 = load i8, ptr %9, align 1
  %135 = call signext i8 @nfaExecMcSheng8_initCompressedState(ptr noundef %131, i64 noundef %132, ptr noundef %133, i8 noundef zeroext %134)
  store i8 %135, ptr %5, align 1
  br label %156

136:                                              ; preds = %4
  %137 = load ptr, ptr %6, align 8
  %138 = load i64, ptr %7, align 8
  %139 = load ptr, ptr %8, align 8
  %140 = load i8, ptr %9, align 1
  %141 = call signext i8 @nfaExecMcSheng16_initCompressedState(ptr noundef %137, i64 noundef %138, ptr noundef %139, i8 noundef zeroext %140)
  store i8 %141, ptr %5, align 1
  br label %156

142:                                              ; preds = %4
  store i32 0, ptr %11, align 4
  %143 = load i32, ptr %11, align 4
  %144 = trunc i32 %143 to i8
  store i8 %144, ptr %5, align 1
  br label %156

145:                                              ; preds = %4
  store i32 0, ptr %12, align 4
  %146 = load i32, ptr %12, align 4
  %147 = trunc i32 %146 to i8
  store i8 %147, ptr %5, align 1
  br label %156

148:                                              ; preds = %4
  store i32 0, ptr %13, align 4
  %149 = load i32, ptr %13, align 4
  %150 = trunc i32 %149 to i8
  store i8 %150, ptr %5, align 1
  br label %156

151:                                              ; preds = %4
  store i32 0, ptr %14, align 4
  %152 = load i32, ptr %14, align 4
  %153 = trunc i32 %152 to i8
  store i8 %153, ptr %5, align 1
  br label %156

154:                                              ; preds = %4
  br label %155

155:                                              ; preds = %154
  store i8 0, ptr %5, align 1
  br label %156

156:                                              ; preds = %155, %151, %148, %145, %142, %136, %130, %127, %121, %115, %109, %103, %97, %91, %85, %79, %73, %67, %61, %55, %49, %43, %37, %31, %25, %19
  %157 = load i8, ptr %5, align 1
  ret i8 %157
}