; Function Attrs: nounwind uwtable
define hidden signext i8 @nfaInitCompressedState(ptr noundef %0, i64 noundef %1, ptr noundef %2, i8 noundef zeroext %3) local_unnamed_addr #0 {
  %5 = getelementptr inbounds nuw i8, ptr %0, i64 8
  %6 = load i8, ptr %5, align 8
  switch i8 %6, label %47 [
    i8 0, label %7
    i8 1, label %9
    i8 2, label %11
    i8 3, label %13
    i8 4, label %15
    i8 5, label %17
    i8 6, label %19
    i8 7, label %21
    i8 8, label %23
    i8 9, label %25
    i8 10, label %27
    i8 11, label %29
    i8 12, label %31
    i8 13, label %33
    i8 14, label %35
    i8 15, label %37
    i8 16, label %39
    i8 17, label %41
    i8 20, label %45
    i8 19, label %43
  ]

7:                                                ; preds = %4
  %8 = tail call signext i8 @nfaExecLimEx32_initCompressedState(ptr noundef nonnull %0, i64 noundef %1, ptr noundef %2, i8 noundef zeroext %3) #3
  br label %47

9:                                                ; preds = %4
  %10 = tail call signext i8 @nfaExecLimEx64_initCompressedState(ptr noundef nonnull %0, i64 noundef %1, ptr noundef %2, i8 noundef zeroext %3) #3
  br label %47

11:                                               ; preds = %4
  %12 = tail call signext i8 @nfaExecLimEx128_initCompressedState(ptr noundef nonnull %0, i64 noundef %1, ptr noundef %2, i8 noundef zeroext %3) #3
  br label %47

13:                                               ; preds = %4
  %14 = tail call signext i8 @nfaExecLimEx256_initCompressedState(ptr noundef nonnull %0, i64 noundef %1, ptr noundef %2, i8 noundef zeroext %3) #3
  br label %47

15:                                               ; preds = %4
  %16 = tail call signext i8 @nfaExecLimEx384_initCompressedState(ptr noundef nonnull %0, i64 noundef %1, ptr noundef %2, i8 noundef zeroext %3) #3
  br label %47

17:                                               ; preds = %4
  %18 = tail call signext i8 @nfaExecLimEx512_initCompressedState(ptr noundef nonnull %0, i64 noundef %1, ptr noundef %2, i8 noundef zeroext %3) #3
  br label %47

19:                                               ; preds = %4
  %20 = tail call signext i8 @nfaExecMcClellan8_initCompressedState(ptr noundef nonnull %0, i64 noundef %1, ptr noundef %2, i8 noundef zeroext %3) #3
  br label %47

21:                                               ; preds = %4
  %22 = tail call signext i8 @nfaExecMcClellan16_initCompressedState(ptr noundef nonnull %0, i64 noundef %1, ptr noundef %2, i8 noundef zeroext %3) #3
  br label %47

23:                                               ; preds = %4
  %24 = tail call signext i8 @nfaExecGough8_initCompressedState(ptr noundef nonnull %0, i64 noundef %1, ptr noundef %2, i8 noundef zeroext %3) #3
  br label %47

25:                                               ; preds = %4
  %26 = tail call signext i8 @nfaExecGough16_initCompressedState(ptr noundef nonnull %0, i64 noundef %1, ptr noundef %2, i8 noundef zeroext %3) #3
  br label %47

27:                                               ; preds = %4
  %28 = tail call signext i8 @nfaExecMpv_initCompressedState(ptr noundef nonnull %0, i64 noundef %1, ptr noundef %2, i8 noundef zeroext %3) #3
  br label %47

29:                                               ; preds = %4
  %30 = tail call signext i8 @nfaExecLbrDot_initCompressedState(ptr noundef nonnull %0, i64 noundef %1, ptr noundef %2, i8 noundef zeroext %3) #3
  br label %47

31:                                               ; preds = %4
  %32 = tail call signext i8 @nfaExecLbrVerm_initCompressedState(ptr noundef nonnull %0, i64 noundef %1, ptr noundef %2, i8 noundef zeroext %3) #3
  br label %47

33:                                               ; preds = %4
  %34 = tail call signext i8 @nfaExecLbrNVerm_initCompressedState(ptr noundef nonnull %0, i64 noundef %1, ptr noundef %2, i8 noundef zeroext %3) #3
  br label %47

35:                                               ; preds = %4
  %36 = tail call signext i8 @nfaExecLbrShuf_initCompressedState(ptr noundef nonnull %0, i64 noundef %1, ptr noundef %2, i8 noundef zeroext %3) #3
  br label %47

37:                                               ; preds = %4
  %38 = tail call signext i8 @nfaExecLbrTruf_initCompressedState(ptr noundef nonnull %0, i64 noundef %1, ptr noundef %2, i8 noundef zeroext %3) #3
  br label %47

39:                                               ; preds = %4
  %40 = tail call signext i8 @nfaExecCastle_initCompressedState(ptr noundef nonnull %0, i64 noundef %1, ptr noundef %2, i8 noundef zeroext %3) #3
  br label %47

41:                                               ; preds = %4
  %42 = tail call signext i8 @nfaExecSheng_initCompressedState(ptr noundef nonnull %0, i64 noundef %1, ptr noundef %2, i8 noundef zeroext %3) #3
  br label %47

43:                                               ; preds = %4
  %44 = tail call signext i8 @nfaExecMcSheng8_initCompressedState(ptr noundef nonnull %0, i64 noundef %1, ptr noundef %2, i8 noundef zeroext %3) #3
  br label %47

45:                                               ; preds = %4
  %46 = tail call signext i8 @nfaExecMcSheng16_initCompressedState(ptr noundef nonnull %0, i64 noundef %1, ptr noundef %2, i8 noundef zeroext %3) #3
  br label %47

47:                                               ; preds = %4, %45, %43, %41, %39, %37, %35, %33, %31, %29, %27, %25, %23, %21, %19, %17, %15, %13, %11, %9, %7
  %.0 = phi i8 [ %46, %45 ], [ %44, %43 ], [ %42, %41 ], [ %40, %39 ], [ %38, %37 ], [ %36, %35 ], [ %34, %33 ], [ %32, %31 ], [ %30, %29 ], [ %28, %27 ], [ %26, %25 ], [ %24, %23 ], [ %22, %21 ], [ %20, %19 ], [ %18, %17 ], [ %16, %15 ], [ %14, %13 ], [ %12, %11 ], [ %10, %9 ], [ %8, %7 ], [ 0, %4 ]
  ret i8 %.0
}